(dp0
I0
S'Filtros'
p1
sI1
S'Por Carpeta..'
p2
sI2
S'Por Tipo..'
p3
sI3
S'Por Peso..'
p4
sI4
S'Realizar b\xc3\xbasqueda en el directorio:'
p5
sI5
S'No incluir el directorio:'
p6
sI6
S'Solo buscar:'
p7
sI7
S'No incluir:'
p8
sI8
S'Solo incluir archivos con peso:'
p9
sI9
S'Mayor que:'
p10
sI10
S'Menor que:'
p11
sI11
S'B\xc3\xbasqueda'
p12
sI12
S'Realizar b\xc3\xbasqueda              '
p13
sI13
S'Adicionar tipos de archivos'
p14
sI14
S'Herramientas'
p15
sI15
S'Borrar Archivos Marcados      '
p16
sI16
S'Borrar Archivos No Marcados '
p17
sI17
S'Borrar Archivos Temporales    '
p18
sI18
S'Borrar Directorios Vac\xc3\xados         '
p19
sI19
S'Cantidad de Grupos:'
p20
sI20
S'Cantidad Total:'
p21
sI21
S'Cantidad de Marcados:'
p22
sI22
S'Peso de los no Marcados:'
p23
sI23
S'Peso de los Marcados:'
p24
sI24
S'Peso Total:'
p25
sI25
S'Idioma'
p26
sI26
S'Tipograf\xc3\xada'
p27
sI27
S'Ayuda'
p28
sI28
S'Cont\xc3\xa1ctenos en Facebook'
p29
sI29
S'Acerca de...'
p30
sI30
S'Marcar todos'
p31
sI31
S'Marcar todos menos uno de cada grupo'
p32
sI32
S'Desmarcar todos'
p33
sI33
S'Marcar encontrados'
p34
sI34
S'DIRECTORIO'
p35
sI35
S'PESO'
p36
sI36
S'TIPO'
p37
sI37
S'MODIFICADO'
p38
sI38
S'Ordenar'
p39
sI39
S'Buscar'
p40
sI40
S'Tiempo de B\xc3\xbasqueda:'
p41
sI41
S'A\xc3\xb1adir otro tipo de archivo'
p42
sI42
S'Excluir otro tipo de archivo'
p43
s.